; Function Attrs: mustprogress nofree norecurse nosync nounwind memory(argmem: readwrite) uwtable
define internal noundef i32 @_ZN2cvL10normL1_32sEPKiPKhPdii(ptr noundef readonly captures(none) %0, ptr noundef readonly %1, ptr noundef captures(none) %2, i32 noundef %3, i32 noundef %4) #6 {
  %6 = load double, ptr %2, align 8
  %.not.i = icmp eq ptr %1, null
  br i1 %.not.i, label %18, label %.preheader25.i

.preheader25.i:                                   ; preds = %5
  %7 = icmp sgt i32 %3, 0
  br i1 %7, label %.lr.ph32.i, label %_ZN2cv7normL1_IidEEiPKT_PKhPT0_ii.exit

.lr.ph32.i:                                       ; preds = %.preheader25.i
  %8 = icmp sgt i32 %4, 0
  %9 = sext i32 %4 to i64
  br i1 %8, label %.lr.ph32.split.us.preheader.i, label %_ZN2cv7normL1_IidEEiPKT_PKhPT0_ii.exit

.lr.ph32.split.us.preheader.i:                    ; preds = %.lr.ph32.i
  %wide.trip.count40.i = zext nneg i32 %3 to i64
  %wide.trip.count.i = zext nneg i32 %4 to i64
  br label %.lr.ph32.split.us.i

.lr.ph32.split.us.i:                              ; preds = %..loopexit_crit_edge.us.i, %.lr.ph32.split.us.preheader.i
  %indvars.iv37.i = phi i64 [ 0, %.lr.ph32.split.us.preheader.i ], [ %indvars.iv.next38.i, %..loopexit_crit_edge.us.i ]
  %.130.us.i = phi double [ %6, %.lr.ph32.split.us.preheader.i ], [ %.3.us.i, %..loopexit_crit_edge.us.i ]
  %.02229.us.i = phi ptr [ %0, %.lr.ph32.split.us.preheader.i ], [ %17, %..loopexit_crit_edge.us.i ]
  %10 = getelementptr inbounds nuw i8, ptr %1, i64 %indvars.iv37.i
  %11 = load i8, ptr %10, align 1
  %.not24.us.i = icmp eq i8 %11, 0
  br i1 %.not24.us.i, label %..loopexit_crit_edge.us.i, label %.preheader.us.i

.preheader.us.i:                                  ; preds = %.lr.ph32.split.us.i, %.preheader.us.i
  %indvars.iv.i = phi i64 [ %indvars.iv.next.i, %.preheader.us.i ], [ 0, %.lr.ph32.split.us.i ]
  %.227.us.i = phi double [ %16, %.preheader.us.i ], [ %.130.us.i, %.lr.ph32.split.us.i ]
  %12 = getelementptr inbounds nuw i32, ptr %.02229.us.i, i64 %indvars.iv.i
  %13 = load i32, ptr %12, align 4
  %14 = tail call noundef i32 @llvm.abs.i32(i32 %13, i1 true)
  %15 = uitofp nneg i32 %14 to double
  %16 = fadd double %.227.us.i, %15
  %indvars.iv.next.i = add nuw nsw i64 %indvars.iv.i, 1
  %exitcond.not.i = icmp eq i64 %indvars.iv.next.i, %wide.trip.count.i
  br i1 %exitcond.not.i, label %..loopexit_crit_edge.us.i, label %.preheader.us.i, !llvm.loop !88

..loopexit_crit_edge.us.i:                        ; preds = %.preheader.us.i, %.lr.ph32.split.us.i
  %.3.us.i = phi double [ %.130.us.i, %.lr.ph32.split.us.i ], [ %16, %.preheader.us.i ]
  %indvars.iv.next38.i = add nuw nsw i64 %indvars.iv37.i, 1
  %17 = getelementptr inbounds nuw i32, ptr %.02229.us.i, i64 %9
  %exitcond41.not.i = icmp eq i64 %indvars.iv.next38.i, %wide.trip.count40.i
  br i1 %exitcond41.not.i, label %_ZN2cv7normL1_IidEEiPKT_PKhPT0_ii.exit, label %.lr.ph32.split.us.i, !llvm.loop !89

18:                                               ; preds = %5
  %19 = mul nsw i32 %4, %3
  %20 = icmp sgt i32 %19, 0
  br i1 %20, label %.lr.ph.preheader.i.i, label %_ZN2cvL6normL1IidEET0_PKT_i.exit.i

.lr.ph.preheader.i.i:                             ; preds = %18
  %wide.trip.count.i.i = zext nneg i32 %19 to i64
  br label %.lr.ph.i.i

.lr.ph.i.i:                                       ; preds = %.lr.ph.i.i, %.lr.ph.preheader.i.i
  %indvars.iv.i.i = phi i64 [ 0, %.lr.ph.preheader.i.i ], [ %indvars.iv.next.i.i, %.lr.ph.i.i ]
  %.067.i.i = phi double [ 0.000000e+00, %.lr.ph.preheader.i.i ], [ %25, %.lr.ph.i.i ]
  %21 = getelementptr inbounds nuw i32, ptr %0, i64 %indvars.iv.i.i
  %22 = load i32, ptr %21, align 4
  %23 = tail call noundef i32 @llvm.abs.i32(i32 %22, i1 true)
  %24 = uitofp nneg i32 %23 to double
  %25 = fadd double %.067.i.i, %24
  %indvars.iv.next.i.i = add nuw nsw i64 %indvars.iv.i.i, 1
  %exitcond.not.i.i = icmp eq i64 %indvars.iv.next.i.i, %wide.trip.count.i.i
  br i1 %exitcond.not.i.i, label %_ZN2cvL6normL1IidEET0_PKT_i.exit.i, label %.lr.ph.i.i, !llvm.loop !90

_ZN2cvL6normL1IidEET0_PKT_i.exit.i:               ; preds = %.lr.ph.i.i, %18
  %.06.lcssa.i.i = phi double [ 0.000000e+00, %18 ], [ %25, %.lr.ph.i.i ]
  %26 = fadd double %6, %.06.lcssa.i.i
  br label %_ZN2cv7normL1_IidEEiPKT_PKhPT0_ii.exit

_ZN2cv7normL1_IidEEiPKT_PKhPT0_ii.exit:           ; preds = %..loopexit_crit_edge.us.i, %.preheader25.i, %.lr.ph32.i, %_ZN2cvL6normL1IidEET0_PKT_i.exit.i
  %.021.i = phi double [ %26, %_ZN2cvL6normL1IidEET0_PKT_i.exit.i ], [ %6, %.preheader25.i ], [ %6, %.lr.ph32.i ], [ %.3.us.i, %..loopexit_crit_edge.us.i ]
  store double %.021.i, ptr %2, align 8
  ret i32 0
}